CCS PCM C Compiler, Version 5.112, 5967               19-Nov-25 20:16

               Filename:   F:\Edu\Vi dieu khien\doc\vixuly\1.2. Vi dieu khien PIC16F877A\Project\Blink\main.lst

               ROM used:   170 words (2%)
                           Largest free fragment is 2048
               RAM used:   7 (2%) at main() level
                           8 (2%) worst case
               Stack used: 0 locations
               Stack size: 8

*
0000:  MOVLW  00
0001:  MOVWF  0A
0002:  GOTO   01A
0003:  NOP
.................... #include <16F877A.h> //Khai bao thu vien su dung 
.................... //////////// Standard Header file for the PIC16F877A device ////////////////
.................... ///////////////////////////////////////////////////////////////////////////
.................... ////        (C) Copyright 1996, 2020 Custom Computer Services          ////
.................... //// This source code may only be used by licensed users of the CCS C  ////
.................... //// compiler.  This source code may only be distributed to other      ////
.................... //// licensed users of the CCS C compiler.  No other use, reproduction ////
.................... //// or distribution is permitted without written permission.          ////
.................... //// Derivative programs created using this software in object code    ////
.................... //// form are not restricted in any way.                               ////
.................... ///////////////////////////////////////////////////////////////////////////
.................... #device PIC16F877A
.................... 
.................... #list
.................... 
.................... #use delay(crystal=20000000) //Khai bao thach anh su dung 20Mhz
0004:  MOVLW  23
0005:  MOVWF  04
0006:  BCF    03.7
0007:  MOVF   00,W
0008:  BTFSC  03.2
0009:  GOTO   017
000A:  MOVLW  06
000B:  MOVWF  78
000C:  CLRF   77
000D:  DECFSZ 77,F
000E:  GOTO   00D
000F:  DECFSZ 78,F
0010:  GOTO   00C
0011:  MOVLW  7B
0012:  MOVWF  77
0013:  DECFSZ 77,F
0014:  GOTO   013
0015:  DECFSZ 00,F
0016:  GOTO   00A
0017:  BCF    0A.3
0018:  BCF    0A.4
0019:  GOTO   040 (RETURN)
.................... #bit RD7   = 0x08.7
.................... void main() //Chuong trinh chinh
001A:  MOVF   03,W
001B:  ANDLW  1F
001C:  MOVWF  03
001D:  BSF    03.5
001E:  BSF    1F.0
001F:  BSF    1F.1
0020:  BSF    1F.2
0021:  BCF    1F.3
0022:  MOVLW  07
0023:  MOVWF  1C
0024:  BCF    03.7
0025:  BCF    03.5
0026:  CLRF   21
.................... {
....................    unsigned char count = 0;
....................    set_tris_d(0x80); //PORT D la OUTPUT
0027:  MOVLW  80
0028:  BSF    03.5
0029:  MOVWF  08
....................    // |RD7  |RD6  |RD5  |RD4  |RD3  |RD2  |RD1  |RD0
....................    //    1    0     0     0     0     0     0     0
....................    output_low(PIN_D0);
002A:  BCF    08.0
002B:  BCF    03.5
002C:  BCF    08.0
....................    output_low(PIN_D1);
002D:  BSF    03.5
002E:  BCF    08.1
002F:  BCF    03.5
0030:  BCF    08.1
....................    output_low(PIN_D2);
0031:  BSF    03.5
0032:  BCF    08.2
0033:  BCF    03.5
0034:  BCF    08.2
....................    output_low(PIN_D3);
0035:  BSF    03.5
0036:  BCF    08.3
0037:  BCF    03.5
0038:  BCF    08.3
....................    while(TRUE){
....................       if(RD7 == 0){
0039:  BTFSC  08.7
003A:  GOTO   047
....................          delay_ms(300);
003B:  MOVLW  02
003C:  MOVWF  22
003D:  MOVLW  96
003E:  MOVWF  23
003F:  GOTO   004
0040:  DECFSZ 22,F
0041:  GOTO   03D
....................          count ++;
0042:  INCF   21,F
....................          if(count == 5) count = 0;
0043:  MOVF   21,W
0044:  SUBLW  05
0045:  BTFSC  03.2
0046:  CLRF   21
....................       }
....................       if(count == 0){
0047:  MOVF   21,F
0048:  BTFSS  03.2
0049:  GOTO   05A
....................          output_low(PIN_D0);
004A:  BSF    03.5
004B:  BCF    08.0
004C:  BCF    03.5
004D:  BCF    08.0
....................          output_low(PIN_D1);
004E:  BSF    03.5
004F:  BCF    08.1
0050:  BCF    03.5
0051:  BCF    08.1
....................          output_low(PIN_D2);
0052:  BSF    03.5
0053:  BCF    08.2
0054:  BCF    03.5
0055:  BCF    08.2
....................          output_low(PIN_D3);
0056:  BSF    03.5
0057:  BCF    08.3
0058:  BCF    03.5
0059:  BCF    08.3
....................       }
....................       if(count == 1){
005A:  DECFSZ 21,W
005B:  GOTO   06C
....................          output_high(PIN_D0);
005C:  BSF    03.5
005D:  BCF    08.0
005E:  BCF    03.5
005F:  BSF    08.0
....................          output_low(PIN_D1);
0060:  BSF    03.5
0061:  BCF    08.1
0062:  BCF    03.5
0063:  BCF    08.1
....................          output_low(PIN_D2);
0064:  BSF    03.5
0065:  BCF    08.2
0066:  BCF    03.5
0067:  BCF    08.2
....................          output_low(PIN_D3);
0068:  BSF    03.5
0069:  BCF    08.3
006A:  BCF    03.5
006B:  BCF    08.3
....................       }
....................       if(count == 2){
006C:  MOVF   21,W
006D:  SUBLW  02
006E:  BTFSS  03.2
006F:  GOTO   080
....................          output_low(PIN_D0);
0070:  BSF    03.5
0071:  BCF    08.0
0072:  BCF    03.5
0073:  BCF    08.0
....................          output_high(PIN_D1);
0074:  BSF    03.5
0075:  BCF    08.1
0076:  BCF    03.5
0077:  BSF    08.1
....................          output_low(PIN_D2);
0078:  BSF    03.5
0079:  BCF    08.2
007A:  BCF    03.5
007B:  BCF    08.2
....................          output_low(PIN_D3);
007C:  BSF    03.5
007D:  BCF    08.3
007E:  BCF    03.5
007F:  BCF    08.3
....................       }
....................       if(count ==3){
0080:  MOVF   21,W
0081:  SUBLW  03
0082:  BTFSS  03.2
0083:  GOTO   094
....................          output_low(PIN_D0);
0084:  BSF    03.5
0085:  BCF    08.0
0086:  BCF    03.5
0087:  BCF    08.0
....................          output_low(PIN_D1);
0088:  BSF    03.5
0089:  BCF    08.1
008A:  BCF    03.5
008B:  BCF    08.1
....................          output_high(PIN_D2);
008C:  BSF    03.5
008D:  BCF    08.2
008E:  BCF    03.5
008F:  BSF    08.2
....................          output_low(PIN_D3);
0090:  BSF    03.5
0091:  BCF    08.3
0092:  BCF    03.5
0093:  BCF    08.3
....................       }
....................       if(count ==4){
0094:  MOVF   21,W
0095:  SUBLW  04
0096:  BTFSS  03.2
0097:  GOTO   0A8
....................          output_low(PIN_D0);
0098:  BSF    03.5
0099:  BCF    08.0
009A:  BCF    03.5
009B:  BCF    08.0
....................          output_low(PIN_D1);
009C:  BSF    03.5
009D:  BCF    08.1
009E:  BCF    03.5
009F:  BCF    08.1
....................          output_low(PIN_D2);
00A0:  BSF    03.5
00A1:  BCF    08.2
00A2:  BCF    03.5
00A3:  BCF    08.2
....................          output_high(PIN_D3);
00A4:  BSF    03.5
00A5:  BCF    08.3
00A6:  BCF    03.5
00A7:  BSF    08.3
....................       }
00A8:  GOTO   039
....................    }
....................    
.................... }
.................... 
00A9:  SLEEP
.................... 
.................... 
.................... 

Configuration Fuses:
   Word  1: 3F72   HS NOWDT PUT BROWNOUT NOLVP NOCPD NOWRT NODEBUG NOPROTECT
